; Function Attrs: mustprogress uwtable
define void @_ZN3zmq9channel_t12xattach_pipeEPNS_6pipe_tEbb(ptr noundef nonnull align 8 captures(none) dereferenceable(1840) %0, ptr noundef %1, i1 zeroext %2, i1 zeroext %3) unnamed_addr #0 align 2 {
  %.not = icmp eq ptr %1, null
  br i1 %.not, label %5, label %10, !prof !89

5:                                                ; preds = %4
  %6 = load ptr, ptr @stderr, align 8, !tbaa !87
  %7 = tail call i32 (ptr, ptr, ...) @fprintf(ptr noundef %6, ptr noundef nonnull @.str, ptr noundef nonnull @.str.3, ptr noundef nonnull @.str.2, i32 noundef 28) #13
  %8 = load ptr, ptr @stderr, align 8, !tbaa !87
  %9 = tail call i32 @fflush(ptr noundef %8)
  tail call void @_ZN3zmq9zmq_abortEPKc(ptr noundef nonnull @.str.3)
  br label %10

10:                                               ; preds = %4, %5
  %11 = getelementptr inbounds nuw i8, ptr %0, i64 1832
  %12 = load ptr, ptr %11, align 8, !tbaa !6
  %13 = icmp eq ptr %12, null
  br i1 %13, label %14, label %15

14:                                               ; preds = %10
  store ptr %1, ptr %11, align 8, !tbaa !6
  br label %16

15:                                               ; preds = %10
  tail call void @_ZN3zmq6pipe_t9terminateEb(ptr noundef nonnull align 8 dereferenceable(328) %1, i1 noundef zeroext false)
  br label %16

16:                                               ; preds = %15, %14
  ret void
}